target datalayout = "e-m:e-p270:32:32-p271:32:32-p272:64:64-i64:64-i128:128-f80:128-n8:16:32:64-S128"
target triple = "x86_64-pc-linux-gnu"

%struct.H5T_cdata_t = type { i32, i32, i8, ptr }

@H5T_init_g = external global i8, align 1
@H5_libterm_g = external global i8, align 1
@.str = private unnamed_addr constant [101 x i8] c"generated/home/dtcxzyw/WorkSpace/Projects/compilers/llvm-opt-benchmark/bench/hdf5/hdf5/src/H5Tconv.c\00", align 1
@H5E_DATATYPE_g = external global i64, align 8
@__func__.H5T__conv_noop = private unnamed_addr constant [15 x i8] c"H5T__conv_noop\00", align 1
@H5E_UNSUPPORTED_g = external global i64, align 8
@.str.4 = private unnamed_addr constant [27 x i8] c"unknown conversion command\00", align 1

; Function Attrs: nounwind uwtable
define i32 @H5T__conv_noop(ptr noundef %0, ptr noundef %1, ptr noundef %2, ptr noundef %3, i64 noundef %4, i64 noundef %5, i64 noundef %6, ptr noundef %7, ptr noundef %8) #0 {
  %10 = alloca ptr, align 8
  %11 = alloca ptr, align 8
  %12 = alloca ptr, align 8
  %13 = alloca ptr, align 8
  %14 = alloca i64, align 8
  %15 = alloca i64, align 8
  %16 = alloca i64, align 8
  %17 = alloca ptr, align 8
  %18 = alloca ptr, align 8
  %19 = alloca i32, align 4
  %20 = alloca i8, align 1
  store ptr %0, ptr %10, align 8, !tbaa !3
  store ptr %1, ptr %11, align 8, !tbaa !3
  store ptr %2, ptr %12, align 8, !tbaa !46
  store ptr %3, ptr %13, align 8, !tbaa !48
  store i64 %4, ptr %14, align 8, !tbaa !17
  store i64 %5, ptr %15, align 8, !tbaa !17
  store i64 %6, ptr %16, align 8, !tbaa !17
  store ptr %7, ptr %17, align 8, !tbaa !10
  store ptr %8, ptr %18, align 8, !tbaa !10
  call void @llvm.lifetime.start.p0(i64 4, ptr %19) #4
  store i32 0, ptr %19, align 4, !tbaa !11
  call void @llvm.lifetime.start.p0(i64 1, ptr %20) #4
  store i8 0, ptr %20, align 1, !tbaa !13
  %21 = load i8, ptr @H5T_init_g, align 1, !tbaa !13, !range !15, !noundef !16
  %22 = trunc i8 %21 to i1
  br i1 %22, label %27, label %23

23:                                               ; preds = %9
  %24 = load i8, ptr @H5_libterm_g, align 1, !tbaa !13, !range !15, !noundef !16
  %25 = trunc i8 %24 to i1
  %26 = xor i1 %25, true
  br label %27

27:                                               ; preds = %23, %9
  %28 = phi i1 [ true, %9 ], [ %26, %23 ]
  %29 = xor i1 %28, true
  %30 = xor i1 %29, true
  %31 = zext i1 %30 to i32
  %32 = sext i32 %31 to i64
  %33 = call i64 @llvm.expect.i64(i64 %32, i64 1)
  %34 = icmp ne i64 %33, 0
  br i1 %34, label %35, label %63

35:                                               ; preds = %27
  %36 = load ptr, ptr %12, align 8, !tbaa !46
  %37 = getelementptr inbounds nuw %struct.H5T_cdata_t, ptr %36, i32 0, i32 0
  %38 = load i32, ptr %37, align 8, !tbaa !50
  switch i32 %38, label %42 [
    i32 0, label %39
    i32 1, label %61
    i32 2, label %61
  ]

39:                                               ; preds = %35
  %40 = load ptr, ptr %12, align 8, !tbaa !46
  %41 = getelementptr inbounds nuw %struct.H5T_cdata_t, ptr %40, i32 0, i32 1
  store i32 0, ptr %41, align 4, !tbaa !52
  br label %61

42:                                               ; preds = %35
  br label %43

43:                                               ; preds = %42
  br label %44

44:                                               ; preds = %43
  br label %45

45:                                               ; preds = %44
  %46 = load i64, ptr @H5E_DATATYPE_g, align 8, !tbaa !17
  %47 = load i64, ptr @H5E_UNSUPPORTED_g, align 8, !tbaa !17
  %48 = call i32 (ptr, ptr, i32, i64, i64, ptr, ...) @H5E_printf_stack(ptr noundef @.str, ptr noundef @__func__.H5T__conv_noop, i32 noundef 260, i64 noundef %46, i64 noundef %47, ptr noundef @.str.4)
  br label %49

49:                                               ; preds = %45
  br label %50

50:                                               ; preds = %49
  store i8 1, ptr %20, align 1, !tbaa !13
  %51 = load i8, ptr %20, align 1, !tbaa !13, !range !15, !noundef !16
  %52 = trunc i8 %51 to i1
  %53 = zext i1 %52 to i8
  store i8 %53, ptr %20, align 1, !tbaa !13
  br label %54

54:                                               ; preds = %50
  br label %55

55:                                               ; preds = %54
  br label %56

56:                                               ; preds = %55
  store i32 -1, ptr %19, align 4, !tbaa !11
  br label %62

57:                                               ; No predecessors!
  br label %58

58:                                               ; preds = %57
  br label %59

59:                                               ; preds = %58
  br label %60

60:                                               ; preds = %59
  br label %61

61:                                               ; preds = %60, %35, %35, %39
  br label %62

62:                                               ; preds = %61, %56
  br label %63

63:                                               ; preds = %62, %27
  %64 = load i32, ptr %19, align 4, !tbaa !11
  call void @llvm.lifetime.end.p0(i64 1, ptr %20) #4
  call void @llvm.lifetime.end.p0(i64 4, ptr %19) #4
  ret i32 %64
}