; Function Attrs: nounwind uwtable
define range(i32 -1, 1) i32 @H5T__conv_noop(ptr noundef readnone captures(none) %0, ptr noundef readnone captures(none) %1, ptr noundef captures(none) %2, ptr noundef readnone captures(none) %3, i64 noundef %4, i64 noundef %5, i64 noundef %6, ptr noundef readnone captures(none) %7, ptr noundef readnone captures(none) %8) local_unnamed_addr #0 {
  %10 = load i8, ptr @H5T_init_g, align 1, !tbaa !3, !range !7, !noundef !8
  %11 = trunc nuw i8 %10 to i1
  %12 = load i8, ptr @H5_libterm_g, align 1, !range !7
  %13 = trunc nuw i8 %12 to i1
  %14 = xor i1 %13, true
  %15 = select i1 %11, i1 true, i1 %14
  br i1 %15, label %16, label %24, !prof !9

16:                                               ; preds = %9
  %17 = load i32, ptr %2, align 8, !tbaa !38
  switch i32 %17, label %20 [
    i32 0, label %18
    i32 1, label %24
    i32 2, label %24
  ]

18:                                               ; preds = %16
  %19 = getelementptr inbounds nuw i8, ptr %2, i64 4
  store i32 0, ptr %19, align 4, !tbaa !40
  br label %24

20:                                               ; preds = %16
  %21 = load i64, ptr @H5E_DATATYPE_g, align 8, !tbaa !10
  %22 = load i64, ptr @H5E_UNSUPPORTED_g, align 8, !tbaa !10
  %23 = tail call i32 (ptr, ptr, i32, i64, i64, ptr, ...) @H5E_printf_stack(ptr noundef nonnull @.str, ptr noundef nonnull @__func__.H5T__conv_noop, i32 noundef 260, i64 noundef %21, i64 noundef %22, ptr noundef nonnull @.str.4) #5
  br label %24

24:                                               ; preds = %20, %18, %16, %16, %9
  %.0 = phi i32 [ -1, %20 ], [ 0, %16 ], [ 0, %16 ], [ 0, %18 ], [ 0, %9 ]
  ret i32 %.0
}